target datalayout = "e-m:e-p270:32:32-p271:32:32-p272:64:64-i64:64-i128:128-f80:128-n8:16:32:64-S128"
target triple = "x86_64-pc-linux-gnu"

%struct.AVHMAC = type { ptr, i32, i32, ptr, ptr, ptr, [128 x i8], i32 }

; Function Attrs: nounwind uwtable
define ptr @av_hmac_alloc(i32 noundef %0) #0 {
  %2 = alloca ptr, align 8
  %3 = alloca i32, align 4
  %4 = alloca ptr, align 8
  %5 = alloca i32, align 4
  store i32 %0, ptr %3, align 4, !tbaa !4
  call void @llvm.lifetime.start.p0(i64 8, ptr %4) #5
  %6 = call noalias ptr @av_mallocz(i64 noundef 176)
  store ptr %6, ptr %4, align 8, !tbaa !8
  %7 = load ptr, ptr %4, align 8, !tbaa !8
  %8 = icmp ne ptr %7, null
  br i1 %8, label %10, label %9

9:                                                ; preds = %1
  store ptr null, ptr %2, align 8
  store i32 1, ptr %5, align 4
  br label %107

10:                                               ; preds = %1
  %11 = load i32, ptr %3, align 4, !tbaa !4
  switch i32 %11, label %96 [
    i32 0, label %12
    i32 1, label %26
    i32 2, label %40
    i32 3, label %54
    i32 4, label %68
    i32 5, label %82
  ]

12:                                               ; preds = %10
  %13 = load ptr, ptr %4, align 8, !tbaa !8
  %14 = getelementptr inbounds nuw %struct.AVHMAC, ptr %13, i32 0, i32 1
  store i32 64, ptr %14, align 8, !tbaa !11
  %15 = load ptr, ptr %4, align 8, !tbaa !8
  %16 = getelementptr inbounds nuw %struct.AVHMAC, ptr %15, i32 0, i32 2
  store i32 16, ptr %16, align 4, !tbaa !13
  %17 = load ptr, ptr %4, align 8, !tbaa !8
  %18 = getelementptr inbounds nuw %struct.AVHMAC, ptr %17, i32 0, i32 5
  store ptr @av_md5_init, ptr %18, align 8, !tbaa !14
  %19 = load ptr, ptr %4, align 8, !tbaa !8
  %20 = getelementptr inbounds nuw %struct.AVHMAC, ptr %19, i32 0, i32 4
  store ptr @av_md5_update, ptr %20, align 8, !tbaa !15
  %21 = load ptr, ptr %4, align 8, !tbaa !8
  %22 = getelementptr inbounds nuw %struct.AVHMAC, ptr %21, i32 0, i32 3
  store ptr @av_md5_final, ptr %22, align 8, !tbaa !16
  %23 = call ptr @av_md5_alloc()
  %24 = load ptr, ptr %4, align 8, !tbaa !8
  %25 = getelementptr inbounds nuw %struct.AVHMAC, ptr %24, i32 0, i32 0
  store ptr %23, ptr %25, align 8, !tbaa !17
  br label %98

26:                                               ; preds = %10
  %27 = load ptr, ptr %4, align 8, !tbaa !8
  %28 = getelementptr inbounds nuw %struct.AVHMAC, ptr %27, i32 0, i32 1
  store i32 64, ptr %28, align 8, !tbaa !11
  %29 = load ptr, ptr %4, align 8, !tbaa !8
  %30 = getelementptr inbounds nuw %struct.AVHMAC, ptr %29, i32 0, i32 2
  store i32 20, ptr %30, align 4, !tbaa !13
  %31 = load ptr, ptr %4, align 8, !tbaa !8
  %32 = getelementptr inbounds nuw %struct.AVHMAC, ptr %31, i32 0, i32 5
  store ptr @sha160_init, ptr %32, align 8, !tbaa !14
  %33 = load ptr, ptr %4, align 8, !tbaa !8
  %34 = getelementptr inbounds nuw %struct.AVHMAC, ptr %33, i32 0, i32 4
  store ptr @av_sha_update, ptr %34, align 8, !tbaa !15
  %35 = load ptr, ptr %4, align 8, !tbaa !8
  %36 = getelementptr inbounds nuw %struct.AVHMAC, ptr %35, i32 0, i32 3
  store ptr @av_sha_final, ptr %36, align 8, !tbaa !16
  %37 = call ptr @av_sha_alloc()
  %38 = load ptr, ptr %4, align 8, !tbaa !8
  %39 = getelementptr inbounds nuw %struct.AVHMAC, ptr %38, i32 0, i32 0
  store ptr %37, ptr %39, align 8, !tbaa !17
  br label %98

40:                                               ; preds = %10
  %41 = load ptr, ptr %4, align 8, !tbaa !8
  %42 = getelementptr inbounds nuw %struct.AVHMAC, ptr %41, i32 0, i32 1
  store i32 64, ptr %42, align 8, !tbaa !11
  %43 = load ptr, ptr %4, align 8, !tbaa !8
  %44 = getelementptr inbounds nuw %struct.AVHMAC, ptr %43, i32 0, i32 2
  store i32 28, ptr %44, align 4, !tbaa !13
  %45 = load ptr, ptr %4, align 8, !tbaa !8
  %46 = getelementptr inbounds nuw %struct.AVHMAC, ptr %45, i32 0, i32 5
  store ptr @sha224_init, ptr %46, align 8, !tbaa !14
  %47 = load ptr, ptr %4, align 8, !tbaa !8
  %48 = getelementptr inbounds nuw %struct.AVHMAC, ptr %47, i32 0, i32 4
  store ptr @av_sha_update, ptr %48, align 8, !tbaa !15
  %49 = load ptr, ptr %4, align 8, !tbaa !8
  %50 = getelementptr inbounds nuw %struct.AVHMAC, ptr %49, i32 0, i32 3
  store ptr @av_sha_final, ptr %50, align 8, !tbaa !16
  %51 = call ptr @av_sha_alloc()
  %52 = load ptr, ptr %4, align 8, !tbaa !8
  %53 = getelementptr inbounds nuw %struct.AVHMAC, ptr %52, i32 0, i32 0
  store ptr %51, ptr %53, align 8, !tbaa !17
  br label %98

54:                                               ; preds = %10
  %55 = load ptr, ptr %4, align 8, !tbaa !8
  %56 = getelementptr inbounds nuw %struct.AVHMAC, ptr %55, i32 0, i32 1
  store i32 64, ptr %56, align 8, !tbaa !11
  %57 = load ptr, ptr %4, align 8, !tbaa !8
  %58 = getelementptr inbounds nuw %struct.AVHMAC, ptr %57, i32 0, i32 2
  store i32 32, ptr %58, align 4, !tbaa !13
  %59 = load ptr, ptr %4, align 8, !tbaa !8
  %60 = getelementptr inbounds nuw %struct.AVHMAC, ptr %59, i32 0, i32 5
  store ptr @sha256_init, ptr %60, align 8, !tbaa !14
  %61 = load ptr, ptr %4, align 8, !tbaa !8
  %62 = getelementptr inbounds nuw %struct.AVHMAC, ptr %61, i32 0, i32 4
  store ptr @av_sha_update, ptr %62, align 8, !tbaa !15
  %63 = load ptr, ptr %4, align 8, !tbaa !8
  %64 = getelementptr inbounds nuw %struct.AVHMAC, ptr %63, i32 0, i32 3
  store ptr @av_sha_final, ptr %64, align 8, !tbaa !16
  %65 = call ptr @av_sha_alloc()
  %66 = load ptr, ptr %4, align 8, !tbaa !8
  %67 = getelementptr inbounds nuw %struct.AVHMAC, ptr %66, i32 0, i32 0
  store ptr %65, ptr %67, align 8, !tbaa !17
  br label %98

68:                                               ; preds = %10
  %69 = load ptr, ptr %4, align 8, !tbaa !8
  %70 = getelementptr inbounds nuw %struct.AVHMAC, ptr %69, i32 0, i32 1
  store i32 128, ptr %70, align 8, !tbaa !11
  %71 = load ptr, ptr %4, align 8, !tbaa !8
  %72 = getelementptr inbounds nuw %struct.AVHMAC, ptr %71, i32 0, i32 2
  store i32 48, ptr %72, align 4, !tbaa !13
  %73 = load ptr, ptr %4, align 8, !tbaa !8
  %74 = getelementptr inbounds nuw %struct.AVHMAC, ptr %73, i32 0, i32 5
  store ptr @sha384_init, ptr %74, align 8, !tbaa !14
  %75 = load ptr, ptr %4, align 8, !tbaa !8
  %76 = getelementptr inbounds nuw %struct.AVHMAC, ptr %75, i32 0, i32 4
  store ptr @av_sha512_update, ptr %76, align 8, !tbaa !15
  %77 = load ptr, ptr %4, align 8, !tbaa !8
  %78 = getelementptr inbounds nuw %struct.AVHMAC, ptr %77, i32 0, i32 3
  store ptr @av_sha512_final, ptr %78, align 8, !tbaa !16
  %79 = call ptr @av_sha512_alloc()
  %80 = load ptr, ptr %4, align 8, !tbaa !8
  %81 = getelementptr inbounds nuw %struct.AVHMAC, ptr %80, i32 0, i32 0
  store ptr %79, ptr %81, align 8, !tbaa !17
  br label %98

82:                                               ; preds = %10
  %83 = load ptr, ptr %4, align 8, !tbaa !8
  %84 = getelementptr inbounds nuw %struct.AVHMAC, ptr %83, i32 0, i32 1
  store i32 128, ptr %84, align 8, !tbaa !11
  %85 = load ptr, ptr %4, align 8, !tbaa !8
  %86 = getelementptr inbounds nuw %struct.AVHMAC, ptr %85, i32 0, i32 2
  store i32 64, ptr %86, align 4, !tbaa !13
  %87 = load ptr, ptr %4, align 8, !tbaa !8
  %88 = getelementptr inbounds nuw %struct.AVHMAC, ptr %87, i32 0, i32 5
  store ptr @sha512_init, ptr %88, align 8, !tbaa !14
  %89 = load ptr, ptr %4, align 8, !tbaa !8
  %90 = getelementptr inbounds nuw %struct.AVHMAC, ptr %89, i32 0, i32 4
  store ptr @av_sha512_update, ptr %90, align 8, !tbaa !15
  %91 = load ptr, ptr %4, align 8, !tbaa !8
  %92 = getelementptr inbounds nuw %struct.AVHMAC, ptr %91, i32 0, i32 3
  store ptr @av_sha512_final, ptr %92, align 8, !tbaa !16
  %93 = call ptr @av_sha512_alloc()
  %94 = load ptr, ptr %4, align 8, !tbaa !8
  %95 = getelementptr inbounds nuw %struct.AVHMAC, ptr %94, i32 0, i32 0
  store ptr %93, ptr %95, align 8, !tbaa !17
  br label %98

96:                                               ; preds = %10
  %97 = load ptr, ptr %4, align 8, !tbaa !8
  call void @av_free(ptr noundef %97)
  store ptr null, ptr %2, align 8
  store i32 1, ptr %5, align 4
  br label %107

98:                                               ; preds = %82, %68, %54, %40, %26, %12
  %99 = load ptr, ptr %4, align 8, !tbaa !8
  %100 = getelementptr inbounds nuw %struct.AVHMAC, ptr %99, i32 0, i32 0
  %101 = load ptr, ptr %100, align 8, !tbaa !17
  %102 = icmp ne ptr %101, null
  br i1 %102, label %105, label %103

103:                                              ; preds = %98
  %104 = load ptr, ptr %4, align 8, !tbaa !8
  call void @av_free(ptr noundef %104)
  store ptr null, ptr %2, align 8
  store i32 1, ptr %5, align 4
  br label %107

105:                                              ; preds = %98
  %106 = load ptr, ptr %4, align 8, !tbaa !8
  store ptr %106, ptr %2, align 8
  store i32 1, ptr %5, align 4
  br label %107

107:                                              ; preds = %105, %103, %96, %9
  call void @llvm.lifetime.end.p0(i64 8, ptr %4) #5
  %108 = load ptr, ptr %2, align 8
  ret ptr %108
}