; Function Attrs: nounwind uwtable
define ptr @av_hmac_alloc(i32 noundef %0) local_unnamed_addr #0 {
  %2 = tail call noalias ptr @av_mallocz(i64 noundef 176) #6
  %.not = icmp eq ptr %2, null
  br i1 %.not, label %47, label %3

3:                                                ; preds = %1
  switch i32 %0, label %.sink.split [
    i32 0, label %4
    i32 1, label %11
    i32 2, label %18
    i32 3, label %25
    i32 4, label %32
    i32 5, label %39
  ]

4:                                                ; preds = %3
  %5 = getelementptr inbounds nuw i8, ptr %2, i64 8
  store i32 64, ptr %5, align 8, !tbaa !4
  %6 = getelementptr inbounds nuw i8, ptr %2, i64 12
  store i32 16, ptr %6, align 4, !tbaa !10
  %7 = getelementptr inbounds nuw i8, ptr %2, i64 32
  store ptr @av_md5_init, ptr %7, align 8, !tbaa !11
  %8 = getelementptr inbounds nuw i8, ptr %2, i64 24
  store ptr @av_md5_update, ptr %8, align 8, !tbaa !12
  %9 = getelementptr inbounds nuw i8, ptr %2, i64 16
  store ptr @av_md5_final, ptr %9, align 8, !tbaa !13
  %10 = tail call ptr @av_md5_alloc() #6
  br label %46

11:                                               ; preds = %3
  %12 = getelementptr inbounds nuw i8, ptr %2, i64 8
  store i32 64, ptr %12, align 8, !tbaa !4
  %13 = getelementptr inbounds nuw i8, ptr %2, i64 12
  store i32 20, ptr %13, align 4, !tbaa !10
  %14 = getelementptr inbounds nuw i8, ptr %2, i64 32
  store ptr @sha160_init, ptr %14, align 8, !tbaa !11
  %15 = getelementptr inbounds nuw i8, ptr %2, i64 24
  store ptr @av_sha_update, ptr %15, align 8, !tbaa !12
  %16 = getelementptr inbounds nuw i8, ptr %2, i64 16
  store ptr @av_sha_final, ptr %16, align 8, !tbaa !13
  %17 = tail call ptr @av_sha_alloc() #6
  br label %46

18:                                               ; preds = %3
  %19 = getelementptr inbounds nuw i8, ptr %2, i64 8
  store i32 64, ptr %19, align 8, !tbaa !4
  %20 = getelementptr inbounds nuw i8, ptr %2, i64 12
  store i32 28, ptr %20, align 4, !tbaa !10
  %21 = getelementptr inbounds nuw i8, ptr %2, i64 32
  store ptr @sha224_init, ptr %21, align 8, !tbaa !11
  %22 = getelementptr inbounds nuw i8, ptr %2, i64 24
  store ptr @av_sha_update, ptr %22, align 8, !tbaa !12
  %23 = getelementptr inbounds nuw i8, ptr %2, i64 16
  store ptr @av_sha_final, ptr %23, align 8, !tbaa !13
  %24 = tail call ptr @av_sha_alloc() #6
  br label %46

25:                                               ; preds = %3
  %26 = getelementptr inbounds nuw i8, ptr %2, i64 8
  store i32 64, ptr %26, align 8, !tbaa !4
  %27 = getelementptr inbounds nuw i8, ptr %2, i64 12
  store i32 32, ptr %27, align 4, !tbaa !10
  %28 = getelementptr inbounds nuw i8, ptr %2, i64 32
  store ptr @sha256_init, ptr %28, align 8, !tbaa !11
  %29 = getelementptr inbounds nuw i8, ptr %2, i64 24
  store ptr @av_sha_update, ptr %29, align 8, !tbaa !12
  %30 = getelementptr inbounds nuw i8, ptr %2, i64 16
  store ptr @av_sha_final, ptr %30, align 8, !tbaa !13
  %31 = tail call ptr @av_sha_alloc() #6
  br label %46

32:                                               ; preds = %3
  %33 = getelementptr inbounds nuw i8, ptr %2, i64 8
  store i32 128, ptr %33, align 8, !tbaa !4
  %34 = getelementptr inbounds nuw i8, ptr %2, i64 12
  store i32 48, ptr %34, align 4, !tbaa !10
  %35 = getelementptr inbounds nuw i8, ptr %2, i64 32
  store ptr @sha384_init, ptr %35, align 8, !tbaa !11
  %36 = getelementptr inbounds nuw i8, ptr %2, i64 24
  store ptr @av_sha512_update, ptr %36, align 8, !tbaa !12
  %37 = getelementptr inbounds nuw i8, ptr %2, i64 16
  store ptr @av_sha512_final, ptr %37, align 8, !tbaa !13
  %38 = tail call ptr @av_sha512_alloc() #6
  br label %46

39:                                               ; preds = %3
  %40 = getelementptr inbounds nuw i8, ptr %2, i64 8
  store i32 128, ptr %40, align 8, !tbaa !4
  %41 = getelementptr inbounds nuw i8, ptr %2, i64 12
  store i32 64, ptr %41, align 4, !tbaa !10
  %42 = getelementptr inbounds nuw i8, ptr %2, i64 32
  store ptr @sha512_init, ptr %42, align 8, !tbaa !11
  %43 = getelementptr inbounds nuw i8, ptr %2, i64 24
  store ptr @av_sha512_update, ptr %43, align 8, !tbaa !12
  %44 = getelementptr inbounds nuw i8, ptr %2, i64 16
  store ptr @av_sha512_final, ptr %44, align 8, !tbaa !13
  %45 = tail call ptr @av_sha512_alloc() #6
  br label %46

46:                                               ; preds = %39, %32, %25, %18, %11, %4
  %.sink = phi ptr [ %45, %39 ], [ %38, %32 ], [ %31, %25 ], [ %24, %18 ], [ %17, %11 ], [ %10, %4 ]
  store ptr %.sink, ptr %2, align 8, !tbaa !14
  %.not43 = icmp eq ptr %.sink, null
  br i1 %.not43, label %.sink.split, label %47

.sink.split:                                      ; preds = %46, %3
  tail call void @av_free(ptr noundef nonnull %2) #6
  br label %47

47:                                               ; preds = %.sink.split, %46, %1
  %.0 = phi ptr [ null, %1 ], [ %2, %46 ], [ null, %.sink.split ]
  ret ptr %.0
}